; Function Attrs: nounwind sspstrong uwtable
define internal void @set_imc(ptr noundef %s, i32 %index, i32 noundef %val) #0 {
entry:
  %not = xor i32 %val, -1
  %arrayidx = getelementptr i8, ptr %s, i64 11584
  %0 = load i32, ptr %arrayidx, align 16
  %and = and i32 %0, %not
  store i32 %and, ptr %arrayidx, align 16
  %arrayidx.i = getelementptr i8, ptr %s, i64 11568
  %1 = load i32, ptr %arrayidx.i, align 16
  tail call fastcc void @set_interrupt_cause(ptr noundef %s, i32 noundef %1)
  ret void
}